target datalayout = "e-m:e-p270:32:32-p271:32:32-p272:64:64-i64:64-i128:128-f80:128-n8:16:32:64-S128"
target triple = "x86_64-pc-linux-gnu"

%class.fpa2bv_converter = type { ptr, ptr, %class.bool_rewriter, %class.bv_util, %class.arith_util, %"class.datatype::util", %class.seq_util, %class.fpa_util, ptr, ptr, ptr, i8, [7 x i8], %class.obj_map, %class.obj_map, %class.obj_map.2, %class.obj_map.7, %class.ref_vector }
%class.bool_rewriter = type { ptr, i8, i8, i8, i8, i8, i8, i32, i8, i32, i32, i8, %class.ptr_vector, %class.ptr_vector, %class.svector, %class.svector }
%class.ptr_vector = type { %class.vector }
%class.vector = type { ptr }
%class.svector = type { %class.vector.0 }
%class.vector.0 = type { ptr }
%class.bv_util = type { %class.bv_recognizers, ptr, ptr }
%class.bv_recognizers = type { i32 }
%class.arith_util = type { ptr, ptr }
%"class.datatype::util" = type { ptr, i32, ptr }
%class.seq_util = type { ptr, ptr, ptr, i32, [4 x i8], %"class.seq_util::str", %"class.seq_util::rex" }
%"class.seq_util::str" = type <{ ptr, ptr, i32, [4 x i8] }>
%"class.seq_util::rex" = type { ptr, ptr, i32, %class.vector.1, %class.ref_vector, %"struct.seq_util::rex::info", %"struct.seq_util::rex::info" }
%class.vector.1 = type { ptr }
%"struct.seq_util::rex::info" = type { i32, i8, i32, i32 }
%class.fpa_util = type { ptr, ptr, i32, %class.arith_util, %class.bv_util }
%class.obj_map = type { %class.core_hashtable }
%class.core_hashtable = type <{ ptr, i32, i32, i32, [4 x i8] }>
%class.obj_map.2 = type { %class.core_hashtable.3 }
%class.core_hashtable.3 = type <{ ptr, i32, i32, i32, [4 x i8] }>
%class.obj_map.7 = type { %class.core_hashtable.8 }
%class.core_hashtable.8 = type <{ ptr, i32, i32, i32, [4 x i8] }>
%class.ref_vector = type { %class.ref_vector_core }
%class.ref_vector_core = type { %class.ref_manager_wrapper, %class.ptr_vector }
%class.ref_manager_wrapper = type { ptr }
%class.obj_ref = type { ptr, ptr }

; Function Attrs: mustprogress nounwind uwtable
define linkonce_odr hidden noundef ptr @_ZNK7obj_refI4expr11ast_managerEcvPS0_Ev(ptr noundef nonnull align 8 dereferenceable(16) %0) #7 comdat align 2 {
  %2 = alloca ptr, align 8
  store ptr %0, ptr %2, align 8, !tbaa !130
  %3 = load ptr, ptr %2, align 8
  %4 = getelementptr inbounds nuw %class.obj_ref, ptr %3, i32 0, i32 0
  %5 = load ptr, ptr %4, align 8, !tbaa !132
  ret ptr %5
}

; Function Attrs: mustprogress nounwind uwtable
define linkonce_odr hidden void @_ZN7obj_refI4expr11ast_managerEC2ERS1_(ptr noundef nonnull align 8 dereferenceable(16) %0, ptr noundef nonnull align 8 dereferenceable(976) %1) unnamed_addr #7 comdat align 2 {
  %3 = alloca ptr, align 8
  %4 = alloca ptr, align 8
  store ptr %0, ptr %3, align 8, !tbaa !130
  store ptr %1, ptr %4, align 8, !tbaa !8
  %5 = load ptr, ptr %3, align 8
  %6 = getelementptr inbounds nuw %class.obj_ref, ptr %5, i32 0, i32 0
  store ptr null, ptr %6, align 8, !tbaa !132
  %7 = getelementptr inbounds nuw %class.obj_ref, ptr %5, i32 0, i32 1
  %8 = load ptr, ptr %4, align 8, !tbaa !8
  store ptr %8, ptr %7, align 8, !tbaa !8
  ret void
}

; Function Attrs: mustprogress uwtable
define hidden void @_ZN16fpa2bv_converter11mk_float_leEP4sortR7obj_refI4expr11ast_managerES6_S6_(ptr noundef nonnull align 8 dereferenceable(496) %0, ptr noundef %1, ptr noundef nonnull align 8 dereferenceable(16) %2, ptr noundef nonnull align 8 dereferenceable(16) %3, ptr noundef nonnull align 8 dereferenceable(16) %4) #4 align 2 personality ptr @__gxx_personality_v0 {
  %6 = alloca ptr, align 8
  %7 = alloca ptr, align 8
  %8 = alloca ptr, align 8
  %9 = alloca ptr, align 8
  %10 = alloca ptr, align 8
  %11 = alloca %class.obj_ref, align 8
  %12 = alloca %class.obj_ref, align 8
  %13 = alloca ptr, align 8
  %14 = alloca i32, align 4
  store ptr %0, ptr %6, align 8, !tbaa !3
  store ptr %1, ptr %7, align 8, !tbaa !206
  store ptr %2, ptr %8, align 8, !tbaa !130
  store ptr %3, ptr %9, align 8, !tbaa !130
  store ptr %4, ptr %10, align 8, !tbaa !130
  %15 = load ptr, ptr %6, align 8
  call void @llvm.lifetime.start.p0(i64 16, ptr %11) #3
  %16 = getelementptr inbounds nuw %class.fpa2bv_converter, ptr %15, i32 0, i32 1
  %17 = load ptr, ptr %16, align 8, !tbaa !113
  call void @_ZN7obj_refI4expr11ast_managerEC2ERS1_(ptr noundef nonnull align 8 dereferenceable(16) %11, ptr noundef nonnull align 8 dereferenceable(976) %17)
  call void @llvm.lifetime.start.p0(i64 16, ptr %12) #3
  %18 = getelementptr inbounds nuw %class.fpa2bv_converter, ptr %15, i32 0, i32 1
  %19 = load ptr, ptr %18, align 8, !tbaa !113
  invoke void @_ZN7obj_refI4expr11ast_managerEC2ERS1_(ptr noundef nonnull align 8 dereferenceable(16) %12, ptr noundef nonnull align 8 dereferenceable(976) %19)
          to label %20 unwind label %36

20:                                               ; preds = %5
  %21 = load ptr, ptr %7, align 8, !tbaa !206
  %22 = load ptr, ptr %8, align 8, !tbaa !130
  %23 = load ptr, ptr %9, align 8, !tbaa !130
  invoke void @_ZN16fpa2bv_converter11mk_float_ltEP4sortR7obj_refI4expr11ast_managerES6_S6_(ptr noundef nonnull align 8 dereferenceable(496) %15, ptr noundef %21, ptr noundef nonnull align 8 dereferenceable(16) %22, ptr noundef nonnull align 8 dereferenceable(16) %23, ptr noundef nonnull align 8 dereferenceable(16) %11)
          to label %24 unwind label %40

24:                                               ; preds = %20
  %25 = load ptr, ptr %7, align 8, !tbaa !206
  %26 = load ptr, ptr %8, align 8, !tbaa !130
  %27 = load ptr, ptr %9, align 8, !tbaa !130
  invoke void @_ZN16fpa2bv_converter11mk_float_eqEP4sortR7obj_refI4expr11ast_managerES6_S6_(ptr noundef nonnull align 8 dereferenceable(496) %15, ptr noundef %25, ptr noundef nonnull align 8 dereferenceable(16) %26, ptr noundef nonnull align 8 dereferenceable(16) %27, ptr noundef nonnull align 8 dereferenceable(16) %12)
          to label %28 unwind label %40

28:                                               ; preds = %24
  %29 = getelementptr inbounds nuw %class.fpa2bv_converter, ptr %15, i32 0, i32 2
  %30 = invoke noundef ptr @_ZNK7obj_refI4expr11ast_managerEcvPS0_Ev(ptr noundef nonnull align 8 dereferenceable(16) %11)
          to label %31 unwind label %40

31:                                               ; preds = %28
  %32 = invoke noundef ptr @_ZNK7obj_refI4expr11ast_managerEcvPS0_Ev(ptr noundef nonnull align 8 dereferenceable(16) %12)
          to label %33 unwind label %40

33:                                               ; preds = %31
  %34 = load ptr, ptr %10, align 8, !tbaa !130
  invoke void @_ZN13bool_rewriter5mk_orEP4exprS1_R7obj_refIS0_11ast_managerE(ptr noundef nonnull align 8 dereferenceable(72) %29, ptr noundef %30, ptr noundef %32, ptr noundef nonnull align 8 dereferenceable(16) %34)
          to label %35 unwind label %40

35:                                               ; preds = %33
  call void @_ZN7obj_refI4expr11ast_managerED2Ev(ptr noundef nonnull align 8 dereferenceable(16) %12) #3
  call void @llvm.lifetime.end.p0(i64 16, ptr %12) #3
  call void @_ZN7obj_refI4expr11ast_managerED2Ev(ptr noundef nonnull align 8 dereferenceable(16) %11) #3
  call void @llvm.lifetime.end.p0(i64 16, ptr %11) #3
  ret void

36:                                               ; preds = %5
  %37 = landingpad { ptr, i32 }
          cleanup
  %38 = extractvalue { ptr, i32 } %37, 0
  store ptr %38, ptr %13, align 8
  %39 = extractvalue { ptr, i32 } %37, 1
  store i32 %39, ptr %14, align 4
  br label %44

40:                                               ; preds = %33, %31, %28, %24, %20
  %41 = landingpad { ptr, i32 }
          cleanup
  %42 = extractvalue { ptr, i32 } %41, 0
  store ptr %42, ptr %13, align 8
  %43 = extractvalue { ptr, i32 } %41, 1
  store i32 %43, ptr %14, align 4
  call void @_ZN7obj_refI4expr11ast_managerED2Ev(ptr noundef nonnull align 8 dereferenceable(16) %12) #3
  br label %44

44:                                               ; preds = %40, %36
  call void @llvm.lifetime.end.p0(i64 16, ptr %12) #3
  call void @_ZN7obj_refI4expr11ast_managerED2Ev(ptr noundef nonnull align 8 dereferenceable(16) %11) #3
  call void @llvm.lifetime.end.p0(i64 16, ptr %11) #3
  br label %45

45:                                               ; preds = %44
  %46 = load ptr, ptr %13, align 8
  %47 = load i32, ptr %14, align 4
  %48 = insertvalue { ptr, i32 } poison, ptr %46, 0
  %49 = insertvalue { ptr, i32 } %48, i32 %47, 1
  resume { ptr, i32 } %49
}